target datalayout = "e-m:e-p270:32:32-p271:32:32-p272:64:64-i64:64-i128:128-f80:128-n8:16:32:64-S128"
target triple = "x86_64-pc-linux-gnu"

%struct.TupleTableSlotOps = type { i64, ptr, ptr, ptr, ptr, ptr, ptr, ptr, ptr, ptr, ptr, ptr, ptr }
%struct.TupleTableSlot = type { i32, i16, i16, ptr, ptr, ptr, ptr, ptr, %struct.ItemPointerData, i32 }
%struct.ItemPointerData = type { %struct.BlockIdData, i16 }
%struct.BlockIdData = type { i16, i16 }
%struct.TupleDescData = type { i32, i32, i32, i32, ptr, [0 x %struct.CompactAttribute] }
%struct.CompactAttribute = type { i32, i16, i8, i8, i8, i8, i8, i8, i8 }

; Function Attrs: nounwind uwtable
define dso_local ptr @ExecStoreVirtualTuple(ptr noundef %0) #0 {
  %2 = alloca ptr, align 8
  store ptr %0, ptr %2, align 8
  %3 = load ptr, ptr %2, align 8
  %4 = getelementptr inbounds nuw %struct.TupleTableSlot, ptr %3, i32 0, i32 1
  %5 = load i16, ptr %4, align 4
  %6 = zext i16 %5 to i32
  %7 = and i32 %6, -3
  %8 = trunc i32 %7 to i16
  store i16 %8, ptr %4, align 4
  %9 = load ptr, ptr %2, align 8
  %10 = getelementptr inbounds nuw %struct.TupleTableSlot, ptr %9, i32 0, i32 4
  %11 = load ptr, ptr %10, align 8
  %12 = getelementptr inbounds nuw %struct.TupleDescData, ptr %11, i32 0, i32 0
  %13 = load i32, ptr %12, align 8
  %14 = trunc i32 %13 to i16
  %15 = load ptr, ptr %2, align 8
  %16 = getelementptr inbounds nuw %struct.TupleTableSlot, ptr %15, i32 0, i32 2
  store i16 %14, ptr %16, align 2
  %17 = load ptr, ptr %2, align 8
  ret ptr %17
}

; Function Attrs: inlinehint nounwind uwtable
define internal ptr @ExecClearTuple(ptr noundef %0) #4 {
  %2 = alloca ptr, align 8
  store ptr %0, ptr %2, align 8
  %3 = load ptr, ptr %2, align 8
  %4 = getelementptr inbounds nuw %struct.TupleTableSlot, ptr %3, i32 0, i32 3
  %5 = load ptr, ptr %4, align 8
  %6 = getelementptr inbounds nuw %struct.TupleTableSlotOps, ptr %5, i32 0, i32 3
  %7 = load ptr, ptr %6, align 8
  %8 = load ptr, ptr %2, align 8
  call void %7(ptr noundef %8)
  %9 = load ptr, ptr %2, align 8
  ret ptr %9
}

; Function Attrs: nounwind uwtable
define dso_local ptr @ExecStoreAllNullTuple(ptr noundef %0) #0 {
  %2 = alloca ptr, align 8
  %3 = alloca ptr, align 8
  %4 = alloca i32, align 4
  %5 = alloca i64, align 8
  %6 = alloca ptr, align 8
  %7 = alloca ptr, align 8
  store ptr %0, ptr %2, align 8
  %8 = load ptr, ptr %2, align 8
  %9 = call ptr @ExecClearTuple(ptr noundef %8)
  br label %10

10:                                               ; preds = %1
  call void @llvm.lifetime.start.p0(i64 8, ptr %3) #10
  %11 = load ptr, ptr %2, align 8
  %12 = getelementptr inbounds nuw %struct.TupleTableSlot, ptr %11, i32 0, i32 5
  %13 = load ptr, ptr %12, align 8
  store ptr %13, ptr %3, align 8
  call void @llvm.lifetime.start.p0(i64 4, ptr %4) #10
  store i32 0, ptr %4, align 4
  call void @llvm.lifetime.start.p0(i64 8, ptr %5) #10
  %14 = load ptr, ptr %2, align 8
  %15 = getelementptr inbounds nuw %struct.TupleTableSlot, ptr %14, i32 0, i32 4
  %16 = load ptr, ptr %15, align 8
  %17 = getelementptr inbounds nuw %struct.TupleDescData, ptr %16, i32 0, i32 0
  %18 = load i32, ptr %17, align 8
  %19 = sext i32 %18 to i64
  %20 = mul i64 %19, 8
  store i64 %20, ptr %5, align 8
  %21 = load ptr, ptr %3, align 8
  %22 = ptrtoint ptr %21 to i64
  %23 = and i64 %22, 7
  %24 = icmp eq i64 %23, 0
  br i1 %24, label %25, label %48

25:                                               ; preds = %10
  %26 = load i64, ptr %5, align 8
  %27 = and i64 %26, 7
  %28 = icmp eq i64 %27, 0
  br i1 %28, label %29, label %48

29:                                               ; preds = %25
  %30 = load i32, ptr %4, align 4
  %31 = icmp eq i32 %30, 0
  br i1 %31, label %32, label %48

32:                                               ; preds = %29
  %33 = load i64, ptr %5, align 8
  %34 = icmp ule i64 %33, 1024
  br i1 %34, label %35, label %48

35:                                               ; preds = %32
  call void @llvm.lifetime.start.p0(i64 8, ptr %6) #10
  %36 = load ptr, ptr %3, align 8
  store ptr %36, ptr %6, align 8
  call void @llvm.lifetime.start.p0(i64 8, ptr %7) #10
  %37 = load ptr, ptr %6, align 8
  %38 = load i64, ptr %5, align 8
  %39 = getelementptr inbounds nuw i8, ptr %37, i64 %38
  store ptr %39, ptr %7, align 8
  br label %40

40:                                               ; preds = %44, %35
  %41 = load ptr, ptr %6, align 8
  %42 = load ptr, ptr %7, align 8
  %43 = icmp ult ptr %41, %42
  br i1 %43, label %44, label %47

44:                                               ; preds = %40
  %45 = load ptr, ptr %6, align 8
  %46 = getelementptr inbounds nuw i64, ptr %45, i32 1
  store ptr %46, ptr %6, align 8
  store i64 0, ptr %45, align 8
  br label %40, !llvm.loop !11

47:                                               ; preds = %40
  call void @llvm.lifetime.end.p0(i64 8, ptr %7) #10
  call void @llvm.lifetime.end.p0(i64 8, ptr %6) #10
  br label %53

48:                                               ; preds = %32, %29, %25, %10
  %49 = load ptr, ptr %3, align 8
  %50 = load i32, ptr %4, align 4
  %51 = trunc i32 %50 to i8
  %52 = load i64, ptr %5, align 8
  call void @llvm.memset.p0.i64(ptr align 1 %49, i8 %51, i64 %52, i1 false)
  br label %53

53:                                               ; preds = %48, %47
  call void @llvm.lifetime.end.p0(i64 8, ptr %5) #10
  call void @llvm.lifetime.end.p0(i64 4, ptr %4) #10
  call void @llvm.lifetime.end.p0(i64 8, ptr %3) #10
  br label %54

54:                                               ; preds = %53
  %55 = load ptr, ptr %2, align 8
  %56 = getelementptr inbounds nuw %struct.TupleTableSlot, ptr %55, i32 0, i32 6
  %57 = load ptr, ptr %56, align 8
  %58 = load ptr, ptr %2, align 8
  %59 = getelementptr inbounds nuw %struct.TupleTableSlot, ptr %58, i32 0, i32 4
  %60 = load ptr, ptr %59, align 8
  %61 = getelementptr inbounds nuw %struct.TupleDescData, ptr %60, i32 0, i32 0
  %62 = load i32, ptr %61, align 8
  %63 = sext i32 %62 to i64
  %64 = mul i64 %63, 1
  call void @llvm.memset.p0.i64(ptr align 1 %57, i8 1, i64 %64, i1 false)
  %65 = load ptr, ptr %2, align 8
  %66 = call ptr @ExecStoreVirtualTuple(ptr noundef %65)
  ret ptr %66
}