; Function Attrs: nounwind uwtable
define dso_local noundef ptr @ExecStoreAllNullTuple(ptr noundef returned %0) local_unnamed_addr #1 {
  %2 = getelementptr inbounds nuw i8, ptr %0, i64 8
  %3 = load ptr, ptr %2, align 8
  %4 = getelementptr inbounds nuw i8, ptr %3, i64 24
  %5 = load ptr, ptr %4, align 8
  tail call void %5(ptr noundef %0) #14
  %6 = getelementptr inbounds nuw i8, ptr %0, i64 24
  %7 = load ptr, ptr %6, align 8
  %8 = getelementptr inbounds nuw i8, ptr %0, i64 16
  %9 = load ptr, ptr %8, align 8
  %10 = load i32, ptr %9, align 8
  %11 = sext i32 %10 to i64
  %12 = shl nsw i64 %11, 3
  %13 = ptrtoint ptr %7 to i64
  %14 = and i64 %13, 7
  %15 = icmp eq i64 %14, 0
  %16 = icmp ult i64 %12, 1025
  %or.cond = select i1 %15, i1 %16, i1 false
  br i1 %or.cond, label %17, label %24

17:                                               ; preds = %1
  %.not = icmp eq i32 %10, 0
  br i1 %.not, label %.loopexit, label %.lr.ph.preheader

.lr.ph.preheader:                                 ; preds = %17
  %18 = add i64 %12, %13
  %19 = add i64 %13, 8
  %umax = tail call i64 @llvm.umax.i64(i64 %18, i64 %19)
  %20 = xor i64 %13, -1
  %21 = add i64 %umax, %20
  %22 = and i64 %21, -8
  %23 = add i64 %22, 8
  tail call void @llvm.memset.p0.i64(ptr align 8 %7, i8 0, i64 %23, i1 false)
  br label %.loopexit

24:                                               ; preds = %1
  tail call void @llvm.memset.p0.i64(ptr align 1 %7, i8 0, i64 %12, i1 false)
  br label %.loopexit

.loopexit:                                        ; preds = %.lr.ph.preheader, %17, %24
  %25 = getelementptr inbounds nuw i8, ptr %0, i64 32
  %26 = load ptr, ptr %25, align 8
  %27 = load ptr, ptr %8, align 8
  %28 = load i32, ptr %27, align 8
  %29 = sext i32 %28 to i64
  tail call void @llvm.memset.p0.i64(ptr align 1 %26, i8 1, i64 %29, i1 false)
  %30 = getelementptr inbounds nuw i8, ptr %0, i64 4
  %31 = load i16, ptr %30, align 4
  %32 = and i16 %31, -3
  store i16 %32, ptr %30, align 4
  %33 = load ptr, ptr %8, align 8
  %34 = load i32, ptr %33, align 8
  %35 = trunc i32 %34 to i16
  %36 = getelementptr inbounds nuw i8, ptr %0, i64 6
  store i16 %35, ptr %36, align 2
  ret ptr %0
}